; Function Attrs: mustprogress nobuiltin allocsize(0) uwtable
define dso_local noalias noundef nonnull ptr @_ZnwmSt11align_val_t(i64 noundef %0, i64 noundef %1) local_unnamed_addr #0 {
  %3 = tail call noalias ptr @aligned_alloc(i64 noundef %1, i64 noundef %0) #16
  call void @llvm.assume(i1 true) [ "align"(ptr %3, i64 %1) ]
  %.not.i = icmp eq ptr %3, null
  br i1 %.not.i, label %4, label %_ZL14alignedNewImplILb0EEPvmSt11align_val_t.exit, !prof !4

4:                                                ; preds = %2
  %5 = tail call fastcc noundef ptr @_ZL9handleOOMmb(i64 noundef %0, i1 noundef zeroext false)
  br label %_ZL14alignedNewImplILb0EEPvmSt11align_val_t.exit

_ZL14alignedNewImplILb0EEPvmSt11align_val_t.exit: ; preds = %2, %4
  %.0.i = phi ptr [ %5, %4 ], [ %3, %2 ]
  ret ptr %.0.i
}